; Function Attrs: mustprogress uwtable
define noundef ptr @_ZN4toku8treenode5allocEPKNS_10comparatorERKNS_8keyrangeEmb(ptr noundef %0, ptr noundef nonnull align 8 dereferenceable(81) %1, i64 noundef %2, i1 noundef zeroext %3) local_unnamed_addr #5 align 2 {
  %5 = alloca %union.pthread_mutexattr_t, align 4
  %6 = tail call noundef ptr @_Z12toku_xcallocmm(i64 noundef 1, i64 noundef 208)
  %7 = getelementptr inbounds nuw i8, ptr %6, i64 136
  store i64 0, ptr %7, align 8, !tbaa !4
  %8 = getelementptr inbounds nuw i8, ptr %6, i64 200
  store i8 0, ptr %8, align 8, !tbaa !21
  %9 = getelementptr inbounds nuw i8, ptr %6, i64 201
  store i8 1, ptr %9, align 1, !tbaa !22
  %10 = getelementptr inbounds nuw i8, ptr %6, i64 192
  store ptr %0, ptr %10, align 8, !tbaa !23
  %11 = getelementptr inbounds nuw i8, ptr %6, i64 144
  store i8 0, ptr %11, align 8, !tbaa !24
  %12 = getelementptr inbounds nuw i8, ptr %6, i64 152
  store ptr null, ptr %12, align 8, !tbaa !25
  tail call void @llvm.memset.p0.i64(ptr noundef nonnull align 8 dereferenceable(202) %6, i8 0, i64 48, i1 false)
  call void @llvm.lifetime.start.p0(i64 4, ptr nonnull %5) #17
  %13 = call i32 @pthread_mutexattr_init(ptr noundef nonnull %5) #17
  %14 = call i32 @pthread_mutexattr_settype(ptr noundef nonnull %5, i32 noundef 3) #17
  %15 = call i32 @pthread_mutex_init(ptr noundef nonnull align 8 dereferenceable(202) %6, ptr noundef nonnull %5) #17
  %16 = call i32 @pthread_mutexattr_destroy(ptr noundef nonnull %5) #17
  %17 = getelementptr inbounds nuw i8, ptr %6, i64 160
  store ptr null, ptr %17, align 8, !tbaa !26
  %18 = getelementptr inbounds nuw i8, ptr %6, i64 168
  store i32 0, ptr %18, align 8, !tbaa !27
  %19 = getelementptr inbounds nuw i8, ptr %6, i64 176
  store ptr null, ptr %19, align 8, !tbaa !26
  %20 = getelementptr inbounds nuw i8, ptr %6, i64 184
  store i32 0, ptr %20, align 8, !tbaa !27
  call void @llvm.lifetime.end.p0(i64 4, ptr nonnull %5) #17
  %21 = zext i1 %3 to i8
  %22 = getelementptr inbounds nuw i8, ptr %6, i64 48
  call void @_ZN4toku8keyrange11create_copyERKS0_(ptr noundef nonnull align 8 dereferenceable(81) %22, ptr noundef nonnull align 8 dereferenceable(81) %1)
  store i64 %2, ptr %7, align 8, !tbaa !4
  store i8 %21, ptr %11, align 8, !tbaa !24
  store i8 0, ptr %9, align 1, !tbaa !22
  ret ptr %6
}